; Function Attrs: mustprogress uwtable
define void @_ZN6icu_7712RegexCompile5errorE10UErrorCode(ptr noundef nonnull readonly align 8 captures(none) dereferenceable(512) %0, i32 noundef %1) local_unnamed_addr #1 align 2 {
  %3 = alloca i32, align 4
  %4 = getelementptr inbounds nuw i8, ptr %0, i64 8
  %5 = load ptr, ptr %4, align 8, !tbaa !18
  %6 = load i32, ptr %5, align 4, !tbaa !13
  %7 = icmp slt i32 %6, 1
  %8 = icmp eq i32 %1, 7
  %or.cond = or i1 %8, %7
  br i1 %or.cond, label %9, label %48

9:                                                ; preds = %2
  store i32 %1, ptr %5, align 4, !tbaa !13
  %10 = getelementptr inbounds nuw i8, ptr %0, i64 48
  %11 = load i64, ptr %10, align 8, !tbaa !37
  %12 = icmp sgt i64 %11, 2147483647
  br i1 %12, label %13, label %16

13:                                               ; preds = %9
  %14 = getelementptr inbounds nuw i8, ptr %0, i64 24
  %15 = load ptr, ptr %14, align 8, !tbaa !58
  store i32 0, ptr %15, align 4, !tbaa !73
  br label %24

16:                                               ; preds = %9
  %17 = getelementptr inbounds nuw i8, ptr %0, i64 56
  %18 = load i64, ptr %17, align 8, !tbaa !38
  %19 = icmp sgt i64 %18, 2147483647
  %20 = trunc i64 %11 to i32
  %21 = getelementptr inbounds nuw i8, ptr %0, i64 24
  %22 = load ptr, ptr %21, align 8, !tbaa !58
  store i32 %20, ptr %22, align 4, !tbaa !73
  %23 = trunc i64 %18 to i32
  %spec.select = select i1 %19, i32 -1, i32 %23
  br label %24

24:                                               ; preds = %16, %13
  %.sink4 = phi ptr [ %15, %13 ], [ %22, %16 ]
  %.sink = phi i32 [ -1, %13 ], [ %spec.select, %16 ]
  %25 = getelementptr inbounds nuw i8, ptr %.sink4, i64 4
  store i32 %.sink, ptr %25, align 4, !tbaa !75
  call void @llvm.lifetime.start.p0(i64 4, ptr nonnull %3) #15
  store i32 0, ptr %3, align 4, !tbaa !13
  %26 = getelementptr inbounds nuw i8, ptr %0, i64 24
  %27 = getelementptr inbounds nuw i8, ptr %.sink4, i64 8
  tail call void @llvm.memset.p0.i64(ptr noundef nonnull align 4 dereferenceable(32) %27, i8 0, i64 32, i1 false)
  %28 = load ptr, ptr %26, align 8, !tbaa !58
  %29 = getelementptr inbounds nuw i8, ptr %28, i64 40
  tail call void @llvm.memset.p0.i64(ptr noundef nonnull align 4 dereferenceable(32) %29, i8 0, i64 32, i1 false)
  %30 = getelementptr inbounds nuw i8, ptr %0, i64 16
  %31 = load ptr, ptr %30, align 8, !tbaa !33
  %32 = getelementptr inbounds nuw i8, ptr %31, i64 8
  %33 = load ptr, ptr %32, align 8, !tbaa !62
  %34 = getelementptr inbounds nuw i8, ptr %0, i64 32
  %35 = load i64, ptr %34, align 8, !tbaa !34
  %36 = add nsw i64 %35, -15
  %37 = load ptr, ptr %26, align 8, !tbaa !58
  %38 = getelementptr inbounds nuw i8, ptr %37, i64 8
  %39 = call i32 @utext_extract_77(ptr noundef %33, i64 noundef %36, i64 noundef %35, ptr noundef nonnull %38, i32 noundef 16, ptr noundef nonnull %3)
  %40 = load ptr, ptr %30, align 8, !tbaa !33
  %41 = getelementptr inbounds nuw i8, ptr %40, i64 8
  %42 = load ptr, ptr %41, align 8, !tbaa !62
  %43 = load i64, ptr %34, align 8, !tbaa !34
  %44 = add nsw i64 %43, 15
  %45 = load ptr, ptr %26, align 8, !tbaa !58
  %46 = getelementptr inbounds nuw i8, ptr %45, i64 40
  %47 = call i32 @utext_extract_77(ptr noundef %42, i64 noundef %43, i64 noundef %44, ptr noundef nonnull %46, i32 noundef 16, ptr noundef nonnull %3)
  call void @llvm.lifetime.end.p0(i64 4, ptr nonnull %3) #15
  br label %48

48:                                               ; preds = %2, %24
  ret void
}